; Function Attrs: mustprogress nofree norecurse nosync nounwind willreturn memory(readwrite, inaccessiblemem: none) uwtable
define internal noundef i32 @fs(double %0, ptr noundef readonly captures(none) %1, ptr noundef readonly captures(none) %2, ptr readnone captures(none) %3) #4 {
  %5 = load ptr, ptr %1, align 8, !tbaa !13
  %6 = getelementptr inbounds nuw i8, ptr %5, i64 16
  %7 = load ptr, ptr %6, align 8, !tbaa !16
  %8 = getelementptr inbounds nuw i8, ptr %7, i64 16
  %9 = load double, ptr %8, align 8, !tbaa !21
  %10 = load ptr, ptr %2, align 8, !tbaa !13
  %11 = getelementptr inbounds nuw i8, ptr %10, i64 16
  %12 = load ptr, ptr %11, align 8, !tbaa !16
  store double %9, ptr %12, align 8, !tbaa !21
  %13 = getelementptr inbounds nuw i8, ptr %12, i64 8
  store double 0.000000e+00, ptr %13, align 8, !tbaa !21
  %14 = fneg double %9
  %15 = getelementptr inbounds nuw i8, ptr %12, i64 16
  store double %14, ptr %15, align 8, !tbaa !21
  ret i32 0
}